; Function Attrs: mustprogress uwtable
define void @_ZN10MainWindow16setRenderingDataEiRK15MLRenderingData(ptr nocapture noundef nonnull readonly align 8 dereferenceable(1376) %0, i32 noundef %1, ptr noundef nonnull align 8 dereferenceable(40) %2) local_unnamed_addr #9 align 2 personality ptr @__gxx_personality_v0 {
  %4 = alloca %class.QMap.185, align 8
  %5 = icmp eq i32 %1, -1
  br i1 %5, label %_ZN4QMapIi15MLRenderingDataED2Ev.exit, label %6

6:                                                ; preds = %3
  %7 = getelementptr inbounds i8, ptr %0, i64 1368
  %8 = load ptr, ptr %7, align 8
  %.not = icmp eq ptr %8, null
  br i1 %.not, label %_ZN4QMapIi15MLRenderingDataED2Ev.exit, label %9

9:                                                ; preds = %6
  %10 = getelementptr inbounds i8, ptr %8, i64 240
  %11 = load ptr, ptr %10, align 8
  %.not14 = icmp eq ptr %11, null
  br i1 %.not14, label %_ZN4QMapIi15MLRenderingDataED2Ev.exit, label %_ZNK10MainWindow3GLAEv.exit

_ZNK10MainWindow3GLAEv.exit:                      ; preds = %9
  %12 = getelementptr inbounds i8, ptr %8, i64 256
  %13 = load ptr, ptr %12, align 8
  %.not15 = icmp eq ptr %13, null
  br i1 %.not15, label %_ZN4QMapIi15MLRenderingDataED2Ev.exit, label %_ZNK10MainWindow3GLAEv.exit19

_ZNK10MainWindow3GLAEv.exit19:                    ; preds = %_ZNK10MainWindow3GLAEv.exit
  %14 = tail call noundef ptr @_ZNK9QGLWidget7contextEv(ptr noundef nonnull align 8 dereferenceable(48) %13)
  tail call void @_ZN26MLSceneGLSharedDataContext27setRenderingDataPerMeshViewEiP10QGLContextRK15MLRenderingData(ptr noundef nonnull align 8 dereferenceable(168) %11, i32 noundef %1, ptr noundef %14, ptr noundef nonnull align 8 dereferenceable(40) %2)
  %15 = tail call noundef zeroext i1 @_ZN26MLSceneGLSharedDataContext13manageBuffersEi(ptr noundef nonnull align 8 dereferenceable(168) %11, i32 noundef %1)
  %16 = getelementptr inbounds i8, ptr %0, i64 296
  %17 = load ptr, ptr %16, align 8
  %.not16 = icmp eq ptr %17, null
  br i1 %.not16, label %_ZN4QMapIi15MLRenderingDataED2Ev.exit, label %_ZNK10MainWindow3GLAEv.exit22

_ZNK10MainWindow3GLAEv.exit22:                    ; preds = %_ZNK10MainWindow3GLAEv.exit19
  store ptr @_ZN12QMapDataBase11shared_nullE, ptr %4, align 8
  %18 = load ptr, ptr %7, align 8, !nonnull !61, !noundef !61
  %19 = getelementptr inbounds i8, ptr %18, i64 256
  %20 = load ptr, ptr %19, align 8
  %21 = invoke noundef ptr @_ZNK9QGLWidget7contextEv(ptr noundef nonnull align 8 dereferenceable(48) %20)
          to label %22 unwind label %37

22:                                               ; preds = %_ZNK10MainWindow3GLAEv.exit22
  invoke void @_ZN26MLSceneGLSharedDataContext24getRenderInfoPerMeshViewEP10QGLContextR4QMapIi15MLRenderingDataE(ptr noundef nonnull align 8 dereferenceable(168) %11, ptr noundef %21, ptr noundef nonnull align 8 dereferenceable(8) %4)
          to label %23 unwind label %37

23:                                               ; preds = %22
  %24 = load ptr, ptr %16, align 8
  invoke void @_ZN24MLRenderingGlobalToolbar22statusConsistencyCheckERK4QMapIi15MLRenderingDataE(ptr noundef nonnull align 8 dereferenceable(96) %24, ptr noundef nonnull align 8 dereferenceable(8) %4)
          to label %25 unwind label %37

25:                                               ; preds = %23
  %26 = load ptr, ptr %4, align 8
  %27 = load atomic i32, ptr %26 monotonic, align 4
  switch i32 %27, label %_ZN9QtPrivate8RefCount5derefEv.exit.i [
    i32 0, label %_ZN9QtPrivate8RefCount5derefEv.exit.thread4.i
    i32 -1, label %_ZN4QMapIi15MLRenderingDataED2Ev.exit
  ]

_ZN9QtPrivate8RefCount5derefEv.exit.i:            ; preds = %25
  %28 = atomicrmw sub ptr %26, i32 1 seq_cst, align 4
  %.not.i23 = icmp eq i32 %28, 1
  br i1 %.not.i23, label %_ZN9QtPrivate8RefCount5derefEv.exit._ZN9QtPrivate8RefCount5derefEv.exit.thread4_crit_edge.i, label %_ZN4QMapIi15MLRenderingDataED2Ev.exit

_ZN9QtPrivate8RefCount5derefEv.exit._ZN9QtPrivate8RefCount5derefEv.exit.thread4_crit_edge.i: ; preds = %_ZN9QtPrivate8RefCount5derefEv.exit.i
  %.pre.i = load ptr, ptr %4, align 8
  br label %_ZN9QtPrivate8RefCount5derefEv.exit.thread4.i

_ZN9QtPrivate8RefCount5derefEv.exit.thread4.i:    ; preds = %_ZN9QtPrivate8RefCount5derefEv.exit._ZN9QtPrivate8RefCount5derefEv.exit.thread4_crit_edge.i, %25
  %29 = phi ptr [ %.pre.i, %_ZN9QtPrivate8RefCount5derefEv.exit._ZN9QtPrivate8RefCount5derefEv.exit.thread4_crit_edge.i ], [ %26, %25 ]
  %30 = getelementptr inbounds i8, ptr %29, i64 16
  %31 = load ptr, ptr %30, align 8
  %.not.i.i = icmp eq ptr %31, null
  br i1 %.not.i.i, label %.noexc1.i, label %32

32:                                               ; preds = %_ZN9QtPrivate8RefCount5derefEv.exit.thread4.i
  invoke void @_ZN8QMapNodeIi15MLRenderingDataE14destroySubTreeEv(ptr noundef nonnull align 8 dereferenceable(72) %31)
          to label %.noexc.i unwind label %34

.noexc.i:                                         ; preds = %32
  %33 = load ptr, ptr %30, align 8
  invoke void @_ZN12QMapDataBase8freeTreeEP12QMapNodeBasei(ptr noundef nonnull align 8 dereferenceable(40) %29, ptr noundef %33, i32 noundef 8)
          to label %.noexc1.i unwind label %34

.noexc1.i:                                        ; preds = %.noexc.i, %_ZN9QtPrivate8RefCount5derefEv.exit.thread4.i
  invoke void @_ZN12QMapDataBase8freeDataEPS_(ptr noundef nonnull %29)
          to label %_ZN4QMapIi15MLRenderingDataED2Ev.exit unwind label %34

34:                                               ; preds = %.noexc1.i, %.noexc.i, %32
  %35 = landingpad { ptr, i32 }
          catch ptr null
  %36 = extractvalue { ptr, i32 } %35, 0
  call void @__clang_call_terminate(ptr %36) #27
  unreachable

37:                                               ; preds = %23, %22, %_ZNK10MainWindow3GLAEv.exit22
  %38 = landingpad { ptr, i32 }
          cleanup
  call void @_ZN4QMapIi15MLRenderingDataED2Ev(ptr noundef nonnull align 8 dereferenceable(8) %4) #26
  resume { ptr, i32 } %38

_ZN4QMapIi15MLRenderingDataED2Ev.exit:            ; preds = %.noexc1.i, %_ZN9QtPrivate8RefCount5derefEv.exit.i, %25, %6, %_ZNK10MainWindow3GLAEv.exit19, %_ZNK10MainWindow3GLAEv.exit, %9, %3
  ret void
}